target datalayout = "e-m:e-p270:32:32-p271:32:32-p272:64:64-i64:64-i128:128-f80:128-n8:16:32:64-S128"
target triple = "x86_64-unknown-linux-gnu"

%class.small_object_allocator = type { [32 x ptr], [32 x ptr], i64 }

; Function Attrs: mustprogress uwtable
define hidden void @_ZN22small_object_allocator10deallocateEmPv(ptr noundef nonnull align 8 dereferenceable(520) %this, i64 noundef %size, ptr noundef %p) #5 align 2 {
entry:
  %this.addr = alloca ptr, align 8
  %size.addr = alloca i64, align 8
  %p.addr = alloca ptr, align 8
  %slot_id = alloca i32, align 4
  store ptr %this, ptr %this.addr, align 8
  store i64 %size, ptr %size.addr, align 8
  store ptr %p, ptr %p.addr, align 8
  %this1 = load ptr, ptr %this.addr, align 8
  %0 = load i64, ptr %size.addr, align 8
  %cmp = icmp eq i64 %0, 0
  br i1 %cmp, label %if.then, label %if.end

if.then:                                          ; preds = %entry
  br label %return

if.end:                                           ; preds = %entry
  %1 = load i64, ptr %size.addr, align 8
  %m_alloc_size = getelementptr inbounds %class.small_object_allocator, ptr %this1, i32 0, i32 2
  %2 = load i64, ptr %m_alloc_size, align 8
  %sub = sub i64 %2, %1
  store i64 %sub, ptr %m_alloc_size, align 8
  %3 = load i64, ptr %size.addr, align 8
  %cmp2 = icmp uge i64 %3, 248
  br i1 %cmp2, label %if.then3, label %if.end4

if.then3:                                         ; preds = %if.end
  %4 = load ptr, ptr %p.addr, align 8
  call void @_ZN6memory10deallocateEPv(ptr noundef %4)
  br label %return

if.end4:                                          ; preds = %if.end
  %5 = load i64, ptr %size.addr, align 8
  %shr = lshr i64 %5, 3
  %conv = trunc i64 %shr to i32
  store i32 %conv, ptr %slot_id, align 4
  %6 = load i64, ptr %size.addr, align 8
  %and = and i64 %6, 7
  %cmp5 = icmp ne i64 %and, 0
  br i1 %cmp5, label %if.then6, label %if.end7

if.then6:                                         ; preds = %if.end4
  %7 = load i32, ptr %slot_id, align 4
  %inc = add i32 %7, 1
  store i32 %inc, ptr %slot_id, align 4
  br label %if.end7

if.end7:                                          ; preds = %if.then6, %if.end4
  %m_free_list = getelementptr inbounds %class.small_object_allocator, ptr %this1, i32 0, i32 1
  %8 = load i32, ptr %slot_id, align 4
  %idxprom = zext i32 %8 to i64
  %arrayidx = getelementptr inbounds [32 x ptr], ptr %m_free_list, i64 0, i64 %idxprom
  %9 = load ptr, ptr %arrayidx, align 8
  %10 = load ptr, ptr %p.addr, align 8
  store ptr %9, ptr %10, align 8
  %11 = load ptr, ptr %p.addr, align 8
  %m_free_list8 = getelementptr inbounds %class.small_object_allocator, ptr %this1, i32 0, i32 1
  %12 = load i32, ptr %slot_id, align 4
  %idxprom9 = zext i32 %12 to i64
  %arrayidx10 = getelementptr inbounds [32 x ptr], ptr %m_free_list8, i64 0, i64 %idxprom9
  store ptr %11, ptr %arrayidx10, align 8
  br label %return

return:                                           ; preds = %if.end7, %if.then3, %if.then
  ret void
}