; Function Attrs: mustprogress uwtable
define hidden void @_ZN22small_object_allocator10deallocateEmPv(ptr nocapture noundef nonnull align 8 dereferenceable(520) %this, i64 noundef %size, ptr noundef %p) local_unnamed_addr #6 align 2 {
entry:
  %cmp = icmp eq i64 %size, 0
  br i1 %cmp, label %return, label %if.end

if.end:                                           ; preds = %entry
  %m_alloc_size = getelementptr inbounds i8, ptr %this, i64 512
  %0 = load i64, ptr %m_alloc_size, align 8
  %sub = sub i64 %0, %size
  store i64 %sub, ptr %m_alloc_size, align 8
  %cmp2 = icmp ugt i64 %size, 247
  br i1 %cmp2, label %if.then3, label %if.end4

if.then3:                                         ; preds = %if.end
  tail call void @_ZN6memory10deallocateEPv(ptr noundef %p)
  br label %return

if.end4:                                          ; preds = %if.end
  %shr = lshr i64 %size, 3
  %and = and i64 %size, 7
  %cmp5.not = icmp ne i64 %and, 0
  %inc = zext i1 %cmp5.not to i64
  %spec.select = add nuw nsw i64 %shr, %inc
  %m_free_list = getelementptr inbounds i8, ptr %this, i64 256
  %arrayidx = getelementptr inbounds [32 x ptr], ptr %m_free_list, i64 0, i64 %spec.select
  %1 = load ptr, ptr %arrayidx, align 8
  store ptr %1, ptr %p, align 8
  store ptr %p, ptr %arrayidx, align 8
  br label %return

return:                                           ; preds = %entry, %if.end4, %if.then3
  ret void
}